target datalayout = "e-m:e-p270:32:32-p271:32:32-p272:64:64-i64:64-i128:128-f80:128-n8:16:32:64-S128"
target triple = "x86_64-pc-linux-gnu"

%struct.slurm_step_id_msg = type { i64, i32, i32, i32 }
%struct.cred_state_t = type { i64, i64, %struct.slurm_step_id_msg }

@.str.13 = private unnamed_addr constant [15 x i8] c"cred_context.c\00", align 1
@__func__._cred_state_unpack = private unnamed_addr constant [19 x i8] c"_cred_state_unpack\00", align 1

; Function Attrs: nounwind uwtable
define internal i32 @_cred_state_unpack(ptr noundef %0, i16 noundef zeroext %1, ptr noundef %2) #0 {
  %4 = alloca i32, align 4
  %5 = alloca ptr, align 8
  %6 = alloca i16, align 2
  %7 = alloca ptr, align 8
  %8 = alloca ptr, align 8
  %9 = alloca i32, align 4
  store ptr %0, ptr %5, align 8
  store i16 %1, ptr %6, align 2
  store ptr %2, ptr %7, align 8
  call void @llvm.lifetime.start.p0(i64 8, ptr %8) #7
  %10 = call ptr @slurm_xcalloc(i64 noundef 1, i64 noundef 40, i1 noundef zeroext true, i1 noundef zeroext false, ptr noundef @.str.13, i32 noundef 210, ptr noundef @__func__._cred_state_unpack)
  store ptr %10, ptr %8, align 8
  %11 = load ptr, ptr %8, align 8
  %12 = getelementptr inbounds nuw %struct.cred_state_t, ptr %11, i32 0, i32 2
  %13 = load ptr, ptr %7, align 8
  %14 = load i16, ptr %6, align 2
  %15 = call i32 @unpack_step_id_members(ptr noundef %12, ptr noundef %13, i16 noundef zeroext %14)
  %16 = icmp ne i32 %15, 0
  br i1 %16, label %17, label %18

17:                                               ; preds = %3
  br label %41

18:                                               ; preds = %3
  br label %19

19:                                               ; preds = %18
  %20 = load ptr, ptr %8, align 8
  %21 = getelementptr inbounds nuw %struct.cred_state_t, ptr %20, i32 0, i32 0
  %22 = load ptr, ptr %7, align 8
  %23 = call i32 @unpack_time(ptr noundef %21, ptr noundef %22)
  %24 = icmp ne i32 %23, 0
  br i1 %24, label %25, label %26

25:                                               ; preds = %19
  br label %41

26:                                               ; preds = %19
  br label %27

27:                                               ; preds = %26
  br label %28

28:                                               ; preds = %27
  br label %29

29:                                               ; preds = %28
  %30 = load ptr, ptr %8, align 8
  %31 = getelementptr inbounds nuw %struct.cred_state_t, ptr %30, i32 0, i32 1
  %32 = load ptr, ptr %7, align 8
  %33 = call i32 @unpack_time(ptr noundef %31, ptr noundef %32)
  %34 = icmp ne i32 %33, 0
  br i1 %34, label %35, label %36

35:                                               ; preds = %29
  br label %41

36:                                               ; preds = %29
  br label %37

37:                                               ; preds = %36
  br label %38

38:                                               ; preds = %37
  %39 = load ptr, ptr %8, align 8
  %40 = load ptr, ptr %5, align 8
  store ptr %39, ptr %40, align 8
  store i32 0, ptr %4, align 4
  store i32 1, ptr %9, align 4
  br label %43

41:                                               ; preds = %35, %25, %17
  call void @slurm_xfree(ptr noundef %8)
  %42 = load ptr, ptr %5, align 8
  store ptr null, ptr %42, align 8
  store i32 -1, ptr %4, align 4
  store i32 1, ptr %9, align 4
  br label %43

43:                                               ; preds = %41, %38
  call void @llvm.lifetime.end.p0(i64 8, ptr %8) #7
  %44 = load i32, ptr %4, align 4
  ret i32 %44
}