; Function Attrs: nounwind uwtable
define internal range(i32 -1, 1) i32 @_cred_state_unpack(ptr noundef writeonly captures(none) initializes((0, 8)) %0, i16 noundef zeroext %1, ptr noundef %2) #0 {
  %4 = alloca ptr, align 8
  call void @llvm.lifetime.start.p0(i64 8, ptr nonnull %4) #10
  %5 = tail call ptr @slurm_xcalloc(i64 noundef 1, i64 noundef 40, i1 noundef zeroext true, i1 noundef zeroext false, ptr noundef nonnull @.str.13, i32 noundef 210, ptr noundef nonnull @__func__._cred_state_unpack) #10
  store ptr %5, ptr %4, align 8
  %6 = getelementptr inbounds nuw i8, ptr %5, i64 16
  %7 = tail call i32 @unpack_step_id_members(ptr noundef nonnull %6, ptr noundef %2, i16 noundef zeroext %1) #10
  %.not = icmp eq i32 %7, 0
  br i1 %.not, label %8, label %13

8:                                                ; preds = %3
  %9 = tail call i32 @unpack_time(ptr noundef nonnull %5, ptr noundef %2) #10
  %.not6 = icmp eq i32 %9, 0
  br i1 %.not6, label %10, label %13

10:                                               ; preds = %8
  %11 = getelementptr inbounds nuw i8, ptr %5, i64 8
  %12 = tail call i32 @unpack_time(ptr noundef nonnull %11, ptr noundef %2) #10
  %.not7 = icmp eq i32 %12, 0
  br i1 %.not7, label %14, label %13

13:                                               ; preds = %10, %8, %3
  call void @slurm_xfree(ptr noundef nonnull %4) #10
  br label %14

14:                                               ; preds = %10, %13
  %storemerge = phi ptr [ null, %13 ], [ %5, %10 ]
  %.0 = phi i32 [ -1, %13 ], [ 0, %10 ]
  store ptr %storemerge, ptr %0, align 8
  call void @llvm.lifetime.end.p0(i64 8, ptr nonnull %4) #10
  ret i32 %.0
}